; Function Attrs: nounwind uwtable
define i32 @wc_ecc_export_ex(ptr noundef %key, ptr noundef %qx, ptr noundef %qxLen, ptr noundef %qy, ptr noundef %qyLen, ptr noundef %d, ptr noundef %dLen, i32 noundef %encType) local_unnamed_addr #2 {
entry:
  %cmp = icmp eq ptr %key, null
  br i1 %cmp, label %return, label %if.end

if.end:                                           ; preds = %entry
  %idx = getelementptr inbounds nuw i8, ptr %key, i64 4
  %0 = load i32, ptr %idx, align 4
  %1 = add i32 %0, -5
  %narrow.i = icmp ult i32 %1, -6
  br i1 %narrow.i, label %return, label %lor.lhs.false

lor.lhs.false:                                    ; preds = %if.end
  %dp = getelementptr inbounds nuw i8, ptr %key, i64 16
  %2 = load ptr, ptr %dp, align 8
  %cmp2 = icmp eq ptr %2, null
  br i1 %cmp2, label %return, label %if.end4

if.end4:                                          ; preds = %lor.lhs.false
  %3 = load i32, ptr %2, align 8
  %cmp6.not = icmp eq ptr %d, null
  br i1 %cmp6.not, label %if.end19, label %if.then7

if.then7:                                         ; preds = %if.end4
  %cmp8 = icmp eq ptr %dLen, null
  br i1 %cmp8, label %return, label %lor.lhs.false9

lor.lhs.false9:                                   ; preds = %if.then7
  %4 = load i32, ptr %key, align 8
  %5 = and i32 %4, -2
  %switch = icmp eq i32 %5, 2
  br i1 %switch, label %if.end14, label %return

if.end14:                                         ; preds = %lor.lhs.false9
  %k = getelementptr inbounds nuw i8, ptr %key, i64 3152
  %call15 = tail call i32 @wc_export_int(ptr noundef nonnull %k, ptr noundef nonnull %d, ptr noundef nonnull %dLen, i32 noundef %3, i32 noundef %encType) #19
  %cmp16.not = icmp eq i32 %call15, 0
  br i1 %cmp16.not, label %if.end19, label %return

if.end19:                                         ; preds = %if.end14, %if.end4
  %cmp20.not = icmp eq ptr %qx, null
  br i1 %cmp20.not, label %if.end33, label %if.then21

if.then21:                                        ; preds = %if.end19
  %cmp22 = icmp eq ptr %qxLen, null
  br i1 %cmp22, label %return, label %lor.lhs.false23

lor.lhs.false23:                                  ; preds = %if.then21
  %6 = load i32, ptr %key, align 8
  %cmp25 = icmp eq i32 %6, 3
  br i1 %cmp25, label %return, label %if.end27

if.end27:                                         ; preds = %lor.lhs.false23
  %pubkey = getelementptr inbounds nuw i8, ptr %key, i64 32
  %call29 = tail call i32 @wc_export_int(ptr noundef nonnull %pubkey, ptr noundef nonnull %qx, ptr noundef nonnull %qxLen, i32 noundef %3, i32 noundef %encType) #19
  %cmp30.not = icmp eq i32 %call29, 0
  br i1 %cmp30.not, label %if.end33, label %return

if.end33:                                         ; preds = %if.end27, %if.end19
  %cmp34.not = icmp eq ptr %qy, null
  br i1 %cmp34.not, label %if.end48, label %if.then35

if.then35:                                        ; preds = %if.end33
  %cmp36 = icmp eq ptr %qyLen, null
  br i1 %cmp36, label %return, label %lor.lhs.false37

lor.lhs.false37:                                  ; preds = %if.then35
  %7 = load i32, ptr %key, align 8
  %cmp39 = icmp eq i32 %7, 3
  br i1 %cmp39, label %return, label %if.end41

if.end41:                                         ; preds = %lor.lhs.false37
  %y = getelementptr inbounds nuw i8, ptr %key, i64 1072
  %call44 = tail call i32 @wc_export_int(ptr noundef nonnull %y, ptr noundef nonnull %qy, ptr noundef nonnull %qyLen, i32 noundef %3, i32 noundef %encType) #19
  %cmp45.not = icmp eq i32 %call44, 0
  br i1 %cmp45.not, label %if.end48, label %return

if.end48:                                         ; preds = %if.end41, %if.end33
  br label %return

return:                                           ; preds = %lor.lhs.false9, %if.end41, %if.then35, %lor.lhs.false37, %if.end27, %if.then21, %lor.lhs.false23, %if.end14, %if.then7, %if.end, %lor.lhs.false, %entry, %if.end48
  %retval.0 = phi i32 [ 0, %if.end48 ], [ -173, %entry ], [ -170, %lor.lhs.false ], [ -170, %if.end ], [ -173, %lor.lhs.false9 ], [ -173, %if.then7 ], [ %call15, %if.end14 ], [ -173, %lor.lhs.false23 ], [ -173, %if.then21 ], [ %call29, %if.end27 ], [ -173, %lor.lhs.false37 ], [ -173, %if.then35 ], [ %call44, %if.end41 ]
  ret i32 %retval.0
}